
rv32ui-p-lb:     ファイル形式 elf32-littleriscv


セクション .text.init の逆アセンブル:

00000000 <_start>:
   0:	04c0006f          	j	4c <reset_vector>

00000004 <trap_vector>:
   4:	34202f73          	csrr	t5,mcause
   8:	00800f93          	li	t6,8
   c:	03ff0a63          	beq	t5,t6,40 <write_tohost>
  10:	00900f93          	li	t6,9
  14:	03ff0663          	beq	t5,t6,40 <write_tohost>
  18:	00b00f93          	li	t6,11
  1c:	03ff0263          	beq	t5,t6,40 <write_tohost>
  20:	00000f17          	auipc	t5,0x0
  24:	fe0f0f13          	addi	t5,t5,-32 # 0 <_start>
  28:	000f0463          	beqz	t5,30 <trap_vector+0x2c>
  2c:	000f0067          	jr	t5
  30:	34202f73          	csrr	t5,mcause
  34:	000f5463          	bgez	t5,3c <handle_exception>
  38:	0040006f          	j	3c <handle_exception>

0000003c <handle_exception>:
  3c:	539e6e13          	ori	t3,t3,1337

00000040 <write_tohost>:
  40:	00000f17          	auipc	t5,0x0
  44:	7dcf2023          	sw	t3,1984(t5) # 800 <tohost>
  48:	ff9ff06f          	j	40 <write_tohost>

0000004c <reset_vector>:
  4c:	f1402573          	csrr	a0,mhartid
  50:	00051063          	bnez	a0,50 <reset_vector+0x4>
  54:	30102573          	csrr	a0,misa
  58:	00055863          	bgez	a0,68 <reset_vector+0x1c>
  5c:	0ff0000f          	fence
  60:	00100e13          	li	t3,1
  64:	00000073          	ecall
  68:	00000e13          	li	t3,0
  6c:	00000297          	auipc	t0,0x0
  70:	f9828293          	addi	t0,t0,-104 # 4 <trap_vector>
  74:	30529073          	csrw	mtvec,t0
  78:	30205073          	csrwi	medeleg,0
  7c:	30305073          	csrwi	mideleg,0
  80:	30405073          	csrwi	mie,0
  84:	00000297          	auipc	t0,0x0
  88:	f7c28293          	addi	t0,t0,-132 # 0 <_start>
  8c:	00028c63          	beqz	t0,a4 <reset_vector+0x58>
  90:	10529073          	csrw	stvec,t0
  94:	1ab00293          	li	t0,427
  98:	30229073          	csrw	medeleg,t0
  9c:	30202373          	csrr	t1,medeleg
  a0:	f8629ee3          	bne	t0,t1,3c <handle_exception>
  a4:	30005073          	csrwi	mstatus,0
  a8:	00000297          	auipc	t0,0x0
  ac:	01428293          	addi	t0,t0,20 # bc <test_2>
  b0:	34129073          	csrw	mepc,t0
  b4:	f1402573          	csrr	a0,mhartid
  b8:	30200073          	mret

000000bc <test_2>:
  bc:	00001097          	auipc	ra,0x1
  c0:	b4408093          	addi	ra,ra,-1212 # c00 <begin_signature>
  c4:	00008183          	lb	gp,0(ra)
  c8:	fff00e93          	li	t4,-1
  cc:	00200e13          	li	t3,2
  d0:	23d19c63          	bne	gp,t4,308 <fail>

000000d4 <test_3>:
  d4:	00001097          	auipc	ra,0x1
  d8:	b2c08093          	addi	ra,ra,-1236 # c00 <begin_signature>
  dc:	00108183          	lb	gp,1(ra)
  e0:	00000e93          	li	t4,0
  e4:	00300e13          	li	t3,3
  e8:	23d19063          	bne	gp,t4,308 <fail>

000000ec <test_4>:
  ec:	00001097          	auipc	ra,0x1
  f0:	b1408093          	addi	ra,ra,-1260 # c00 <begin_signature>
  f4:	00208183          	lb	gp,2(ra)
  f8:	ff000e93          	li	t4,-16
  fc:	00400e13          	li	t3,4
 100:	21d19463          	bne	gp,t4,308 <fail>

00000104 <test_5>:
 104:	00001097          	auipc	ra,0x1
 108:	afc08093          	addi	ra,ra,-1284 # c00 <begin_signature>
 10c:	00308183          	lb	gp,3(ra)
 110:	00f00e93          	li	t4,15
 114:	00500e13          	li	t3,5
 118:	1fd19863          	bne	gp,t4,308 <fail>

0000011c <test_6>:
 11c:	00001097          	auipc	ra,0x1
 120:	ae708093          	addi	ra,ra,-1305 # c03 <tdat4>
 124:	ffd08183          	lb	gp,-3(ra)
 128:	fff00e93          	li	t4,-1
 12c:	00600e13          	li	t3,6
 130:	1dd19c63          	bne	gp,t4,308 <fail>

00000134 <test_7>:
 134:	00001097          	auipc	ra,0x1
 138:	acf08093          	addi	ra,ra,-1329 # c03 <tdat4>
 13c:	ffe08183          	lb	gp,-2(ra)
 140:	00000e93          	li	t4,0
 144:	00700e13          	li	t3,7
 148:	1dd19063          	bne	gp,t4,308 <fail>

0000014c <test_8>:
 14c:	00001097          	auipc	ra,0x1
 150:	ab708093          	addi	ra,ra,-1353 # c03 <tdat4>
 154:	fff08183          	lb	gp,-1(ra)
 158:	ff000e93          	li	t4,-16
 15c:	00800e13          	li	t3,8
 160:	1bd19463          	bne	gp,t4,308 <fail>

00000164 <test_9>:
 164:	00001097          	auipc	ra,0x1
 168:	a9f08093          	addi	ra,ra,-1377 # c03 <tdat4>
 16c:	00008183          	lb	gp,0(ra)
 170:	00f00e93          	li	t4,15
 174:	00900e13          	li	t3,9
 178:	19d19863          	bne	gp,t4,308 <fail>

0000017c <test_10>:
 17c:	00001097          	auipc	ra,0x1
 180:	a8408093          	addi	ra,ra,-1404 # c00 <begin_signature>
 184:	fe008093          	addi	ra,ra,-32
 188:	02008183          	lb	gp,32(ra)
 18c:	fff00e93          	li	t4,-1
 190:	00a00e13          	li	t3,10
 194:	17d19a63          	bne	gp,t4,308 <fail>

00000198 <test_11>:
 198:	00001097          	auipc	ra,0x1
 19c:	a6808093          	addi	ra,ra,-1432 # c00 <begin_signature>
 1a0:	ffa08093          	addi	ra,ra,-6
 1a4:	00708183          	lb	gp,7(ra)
 1a8:	00000e93          	li	t4,0
 1ac:	00b00e13          	li	t3,11
 1b0:	15d19c63          	bne	gp,t4,308 <fail>

000001b4 <test_12>:
 1b4:	00c00e13          	li	t3,12
 1b8:	00000213          	li	tp,0
 1bc:	00001097          	auipc	ra,0x1
 1c0:	a4508093          	addi	ra,ra,-1467 # c01 <tdat2>
 1c4:	00108183          	lb	gp,1(ra)
 1c8:	00018313          	mv	t1,gp
 1cc:	ff000e93          	li	t4,-16
 1d0:	13d31c63          	bne	t1,t4,308 <fail>
 1d4:	00120213          	addi	tp,tp,1 # 1 <_start+0x1>
 1d8:	00200293          	li	t0,2
 1dc:	fe5210e3          	bne	tp,t0,1bc <test_12+0x8>

000001e0 <test_13>:
 1e0:	00d00e13          	li	t3,13
 1e4:	00000213          	li	tp,0
 1e8:	00001097          	auipc	ra,0x1
 1ec:	a1a08093          	addi	ra,ra,-1510 # c02 <tdat3>
 1f0:	00108183          	lb	gp,1(ra)
 1f4:	00000013          	nop
 1f8:	00018313          	mv	t1,gp
 1fc:	00f00e93          	li	t4,15
 200:	11d31463          	bne	t1,t4,308 <fail>
 204:	00120213          	addi	tp,tp,1 # 1 <_start+0x1>
 208:	00200293          	li	t0,2
 20c:	fc521ee3          	bne	tp,t0,1e8 <test_13+0x8>

00000210 <test_14>:
 210:	00e00e13          	li	t3,14
 214:	00000213          	li	tp,0
 218:	00001097          	auipc	ra,0x1
 21c:	9e808093          	addi	ra,ra,-1560 # c00 <begin_signature>
 220:	00108183          	lb	gp,1(ra)
 224:	00000013          	nop
 228:	00000013          	nop
 22c:	00018313          	mv	t1,gp
 230:	00000e93          	li	t4,0
 234:	0dd31a63          	bne	t1,t4,308 <fail>
 238:	00120213          	addi	tp,tp,1 # 1 <_start+0x1>
 23c:	00200293          	li	t0,2
 240:	fc521ce3          	bne	tp,t0,218 <test_14+0x8>

00000244 <test_15>:
 244:	00f00e13          	li	t3,15
 248:	00000213          	li	tp,0
 24c:	00001097          	auipc	ra,0x1
 250:	9b508093          	addi	ra,ra,-1611 # c01 <tdat2>
 254:	00108183          	lb	gp,1(ra)
 258:	ff000e93          	li	t4,-16
 25c:	0bd19663          	bne	gp,t4,308 <fail>
 260:	00120213          	addi	tp,tp,1 # 1 <_start+0x1>
 264:	00200293          	li	t0,2
 268:	fe5212e3          	bne	tp,t0,24c <test_15+0x8>

0000026c <test_16>:
 26c:	01000e13          	li	t3,16
 270:	00000213          	li	tp,0
 274:	00001097          	auipc	ra,0x1
 278:	98e08093          	addi	ra,ra,-1650 # c02 <tdat3>
 27c:	00000013          	nop
 280:	00108183          	lb	gp,1(ra)
 284:	00f00e93          	li	t4,15
 288:	09d19063          	bne	gp,t4,308 <fail>
 28c:	00120213          	addi	tp,tp,1 # 1 <_start+0x1>
 290:	00200293          	li	t0,2
 294:	fe5210e3          	bne	tp,t0,274 <test_16+0x8>

00000298 <test_17>:
 298:	01100e13          	li	t3,17
 29c:	00000213          	li	tp,0
 2a0:	00001097          	auipc	ra,0x1
 2a4:	96008093          	addi	ra,ra,-1696 # c00 <begin_signature>
 2a8:	00000013          	nop
 2ac:	00000013          	nop
 2b0:	00108183          	lb	gp,1(ra)
 2b4:	00000e93          	li	t4,0
 2b8:	05d19863          	bne	gp,t4,308 <fail>
 2bc:	00120213          	addi	tp,tp,1 # 1 <_start+0x1>
 2c0:	00200293          	li	t0,2
 2c4:	fc521ee3          	bne	tp,t0,2a0 <test_17+0x8>

000002c8 <test_18>:
 2c8:	00001197          	auipc	gp,0x1
 2cc:	93818193          	addi	gp,gp,-1736 # c00 <begin_signature>
 2d0:	00018103          	lb	sp,0(gp)
 2d4:	00200113          	li	sp,2
 2d8:	00200e93          	li	t4,2
 2dc:	01200e13          	li	t3,18
 2e0:	03d11463          	bne	sp,t4,308 <fail>

000002e4 <test_19>:
 2e4:	00001197          	auipc	gp,0x1
 2e8:	91c18193          	addi	gp,gp,-1764 # c00 <begin_signature>
 2ec:	00018103          	lb	sp,0(gp)
 2f0:	00000013          	nop
 2f4:	00200113          	li	sp,2
 2f8:	00200e93          	li	t4,2
 2fc:	01300e13          	li	t3,19
 300:	01d11463          	bne	sp,t4,308 <fail>
 304:	01c01c63          	bne	zero,t3,31c <pass>

00000308 <fail>:
 308:	0ff0000f          	fence
 30c:	000e0063          	beqz	t3,30c <fail+0x4>
 310:	001e1e13          	slli	t3,t3,0x1
 314:	001e6e13          	ori	t3,t3,1
 318:	00000073          	ecall

0000031c <pass>:
 31c:	0ff0000f          	fence
 320:	00100e13          	li	t3,1
 324:	00000073          	ecall
 328:	c0001073          	unimp
 32c:	0000                	unimp
 32e:	0000                	unimp
 330:	0000                	unimp
 332:	0000                	unimp
 334:	0000                	unimp
 336:	0000                	unimp
 338:	0000                	unimp
 33a:	0000                	unimp
 33c:	0000                	unimp
 33e:	0000                	unimp
 340:	0000                	unimp
 342:	0000                	unimp

セクション .data の逆アセンブル:

00000c00 <begin_signature>:
 c00:	00ff                	0xff

00000c01 <tdat2>:
 c01:	f000                	fsw	fs0,32(s0)

00000c02 <tdat3>:
 c02:	0ff0                	addi	a2,sp,988

00000c03 <tdat4>:
 c03:	0000000f          	fence	unknown,unknown
 c07:	0000                	unimp
 c09:	0000                	unimp
 c0b:	0000                	unimp
 c0d:	0000                	unimp
 c0f:	00 65 2d 6c 61          	Address 0x0000000000000c0f is out of bounds.

